target datalayout = "e-m:e-p270:32:32-p271:32:32-p272:64:64-i64:64-i128:128-f80:128-n8:16:32:64-S128"
target triple = "x86_64-pc-linux-gnu"

; Function Attrs: mustprogress uwtable
define void @_ZN3gmx24QMMMTopologyPreprocessor10preprocessEP10gmx_mtop_t(ptr noundef nonnull align 8 dereferenceable(212) %0, ptr noundef %1) #3 align 2 {
  %3 = alloca ptr, align 8
  %4 = alloca ptr, align 8
  store ptr %0, ptr %3, align 8, !tbaa !67
  store ptr %1, ptr %4, align 8, !tbaa !226
  %5 = load ptr, ptr %3, align 8
  %6 = load ptr, ptr %4, align 8, !tbaa !226
  call void @_ZN3gmx24QMMMTopologyPreprocessor13splitQMblocksEP10gmx_mtop_t(ptr noundef nonnull align 8 dereferenceable(212) %5, ptr noundef %6)
  %7 = load ptr, ptr %4, align 8, !tbaa !226
  call void @_ZN3gmx24QMMMTopologyPreprocessor22modifyQMMMVirtualSitesEP10gmx_mtop_t(ptr noundef nonnull align 8 dereferenceable(212) %5, ptr noundef %7)
  %8 = load ptr, ptr %4, align 8, !tbaa !226
  call void @_ZN3gmx24QMMMTopologyPreprocessor24removeQMClassicalChargesEP10gmx_mtop_t(ptr noundef nonnull align 8 dereferenceable(212) %5, ptr noundef %8)
  %9 = load ptr, ptr %4, align 8, !tbaa !226
  call void @_ZN3gmx24QMMMTopologyPreprocessor17addQMLJExclusionsEP10gmx_mtop_t(ptr noundef nonnull align 8 dereferenceable(212) %5, ptr noundef %9)
  %10 = load ptr, ptr %4, align 8, !tbaa !226
  call void @_ZN3gmx24QMMMTopologyPreprocessor20buildQMMMAtomNumbersEP10gmx_mtop_t(ptr noundef nonnull align 8 dereferenceable(212) %5, ptr noundef %10)
  %11 = load ptr, ptr %4, align 8, !tbaa !226
  call void @_ZN3gmx24QMMMTopologyPreprocessor31modifyQMMMTwoCenterInteractionsEP10gmx_mtop_t(ptr noundef nonnull align 8 dereferenceable(212) %5, ptr noundef %11)
  %12 = load ptr, ptr %4, align 8, !tbaa !226
  call void @_ZN3gmx24QMMMTopologyPreprocessor33modifyQMMMThreeCenterInteractionsEP10gmx_mtop_t(ptr noundef nonnull align 8 dereferenceable(212) %5, ptr noundef %12)
  %13 = load ptr, ptr %4, align 8, !tbaa !226
  call void @_ZN3gmx24QMMMTopologyPreprocessor32modifyQMMMFourCenterInteractionsEP10gmx_mtop_t(ptr noundef nonnull align 8 dereferenceable(212) %5, ptr noundef %13)
  %14 = load ptr, ptr %4, align 8, !tbaa !226
  call void @_ZN3gmx24QMMMTopologyPreprocessor13buildQMMMLinkEP10gmx_mtop_t(ptr noundef nonnull align 8 dereferenceable(212) %5, ptr noundef %14)
  %15 = load ptr, ptr %4, align 8, !tbaa !226
  call void @_ZN10gmx_mtop_t8finalizeEv(ptr noundef nonnull align 8 dereferenceable(768) %15)
  ret void
}