; Function Attrs: mustprogress uwtable
define void @_ZN3gmx24QMMMTopologyPreprocessor10preprocessEP10gmx_mtop_t(ptr noundef nonnull align 8 dereferenceable(212) %0, ptr noundef %1) local_unnamed_addr #11 align 2 {
  tail call void @_ZN3gmx24QMMMTopologyPreprocessor13splitQMblocksEP10gmx_mtop_t(ptr noundef nonnull align 8 dereferenceable(212) %0, ptr noundef %1)
  tail call void @_ZN3gmx24QMMMTopologyPreprocessor22modifyQMMMVirtualSitesEP10gmx_mtop_t(ptr noundef nonnull align 8 dereferenceable(212) %0, ptr noundef %1)
  tail call void @_ZN3gmx24QMMMTopologyPreprocessor24removeQMClassicalChargesEP10gmx_mtop_t(ptr noundef nonnull align 8 dereferenceable(212) %0, ptr noundef %1)
  tail call void @_ZN3gmx24QMMMTopologyPreprocessor17addQMLJExclusionsEP10gmx_mtop_t(ptr noundef nonnull align 8 dereferenceable(212) %0, ptr noundef %1)
  tail call void @_ZN3gmx24QMMMTopologyPreprocessor20buildQMMMAtomNumbersEP10gmx_mtop_t(ptr noundef nonnull align 8 dereferenceable(212) %0, ptr noundef %1)
  tail call void @_ZN3gmx24QMMMTopologyPreprocessor31modifyQMMMTwoCenterInteractionsEP10gmx_mtop_t(ptr noundef nonnull align 8 dereferenceable(212) %0, ptr noundef nonnull %1)
  tail call void @_ZN3gmx24QMMMTopologyPreprocessor33modifyQMMMThreeCenterInteractionsEP10gmx_mtop_t(ptr noundef nonnull align 8 dereferenceable(212) %0, ptr noundef nonnull %1)
  tail call void @_ZN3gmx24QMMMTopologyPreprocessor32modifyQMMMFourCenterInteractionsEP10gmx_mtop_t(ptr noundef nonnull align 8 dereferenceable(212) %0, ptr noundef nonnull %1)
  tail call void @_ZN3gmx24QMMMTopologyPreprocessor13buildQMMMLinkEP10gmx_mtop_t(ptr noundef nonnull align 8 dereferenceable(212) %0, ptr noundef nonnull %1)
  tail call void @_ZN10gmx_mtop_t8finalizeEv(ptr noundef nonnull align 8 dereferenceable(768) %1)
  ret void
}